target datalayout = "e-m:e-p270:32:32-p271:32:32-p272:64:64-i64:64-i128:128-f80:128-n8:16:32:64-S128"
target triple = "x86_64-pc-linux-gnu"

%struct.mi_memid_s = type { %union.anon, i8, i8, i8, i32 }
%union.anon = type { %struct.mi_memid_os_info }
%struct.mi_memid_os_info = type { ptr, i64 }

@.str.14 = private unnamed_addr constant [38 x i8] c"failed to reserve %zu GiB huge pages\0A\00", align 1
@.str.15 = private unnamed_addr constant [70 x i8] c"numa node %i: reserved %zu GiB huge pages (of the %zu GiB requested)\0A\00", align 1
@_mi_numa_node_count = external hidden global i64, align 8

; Function Attrs: inlinehint nounwind uwtable
define internal i64 @_mi_os_numa_node_count() #4 {
  %1 = alloca i64, align 8
  %2 = alloca i64, align 8
  %3 = alloca i64, align 8
  %4 = alloca i32, align 4
  call void @llvm.lifetime.start.p0(i64 8, ptr %2) #13
  %5 = load atomic i64, ptr @_mi_numa_node_count monotonic, align 8
  store i64 %5, ptr %3, align 8
  %6 = load i64, ptr %3, align 8, !tbaa !15
  store i64 %6, ptr %2, align 8, !tbaa !15
  %7 = load i64, ptr %2, align 8, !tbaa !15
  %8 = icmp ugt i64 %7, 0
  %9 = xor i1 %8, true
  %10 = xor i1 %9, true
  %11 = zext i1 %10 to i32
  %12 = sext i32 %11 to i64
  %13 = call i64 @llvm.expect.i64(i64 %12, i64 1)
  %14 = icmp ne i64 %13, 0
  br i1 %14, label %15, label %17

15:                                               ; preds = %0
  %16 = load i64, ptr %2, align 8, !tbaa !15
  store i64 %16, ptr %1, align 8
  store i32 1, ptr %4, align 4
  br label %19

17:                                               ; preds = %0
  %18 = call i64 @_mi_os_numa_node_count_get() #12
  store i64 %18, ptr %1, align 8
  store i32 1, ptr %4, align 4
  br label %19

19:                                               ; preds = %17, %15
  call void @llvm.lifetime.end.p0(i64 8, ptr %2) #13
  %20 = load i64, ptr %1, align 8
  ret i64 %20
}

; Function Attrs: nounwind uwtable
define hidden i32 @mi_reserve_huge_os_pages_at_ex(i64 noundef %0, i32 noundef %1, i64 noundef %2, i1 noundef zeroext %3, ptr noundef %4) #0 {
  %6 = alloca i32, align 4
  %7 = alloca i64, align 8
  %8 = alloca i32, align 4
  %9 = alloca i64, align 8
  %10 = alloca i8, align 1
  %11 = alloca ptr, align 8
  %12 = alloca i64, align 8
  %13 = alloca i64, align 8
  %14 = alloca %struct.mi_memid_s, align 8
  %15 = alloca ptr, align 8
  %16 = alloca i32, align 4
  store i64 %0, ptr %7, align 8, !tbaa !15
  store i32 %1, ptr %8, align 4, !tbaa !52
  store i64 %2, ptr %9, align 8, !tbaa !15
  %17 = zext i1 %3 to i8
  store i8 %17, ptr %10, align 1, !tbaa !21
  store ptr %4, ptr %11, align 8, !tbaa !69
  %18 = load ptr, ptr %11, align 8, !tbaa !69
  %19 = icmp ne ptr %18, null
  br i1 %19, label %20, label %22

20:                                               ; preds = %5
  %21 = load ptr, ptr %11, align 8, !tbaa !69
  store i32 -1, ptr %21, align 4, !tbaa !52
  br label %22

22:                                               ; preds = %20, %5
  %23 = load i64, ptr %7, align 8, !tbaa !15
  %24 = icmp eq i64 %23, 0
  br i1 %24, label %25, label %26

25:                                               ; preds = %22
  store i32 0, ptr %6, align 4
  br label %67

26:                                               ; preds = %22
  %27 = load i32, ptr %8, align 4, !tbaa !52
  %28 = icmp slt i32 %27, -1
  br i1 %28, label %29, label %30

29:                                               ; preds = %26
  store i32 -1, ptr %8, align 4, !tbaa !52
  br label %30

30:                                               ; preds = %29, %26
  %31 = load i32, ptr %8, align 4, !tbaa !52
  %32 = icmp sge i32 %31, 0
  br i1 %32, label %33, label %39

33:                                               ; preds = %30
  %34 = load i32, ptr %8, align 4, !tbaa !52
  %35 = sext i32 %34 to i64
  %36 = call i64 @_mi_os_numa_node_count() #12
  %37 = urem i64 %35, %36
  %38 = trunc i64 %37 to i32
  store i32 %38, ptr %8, align 4, !tbaa !52
  br label %39

39:                                               ; preds = %33, %30
  call void @llvm.lifetime.start.p0(i64 8, ptr %12) #13
  store i64 0, ptr %12, align 8, !tbaa !15
  call void @llvm.lifetime.start.p0(i64 8, ptr %13) #13
  store i64 0, ptr %13, align 8, !tbaa !15
  call void @llvm.lifetime.start.p0(i64 24, ptr %14) #13
  call void @llvm.lifetime.start.p0(i64 8, ptr %15) #13
  %40 = load i64, ptr %7, align 8, !tbaa !15
  %41 = load i32, ptr %8, align 4, !tbaa !52
  %42 = load i64, ptr %9, align 8, !tbaa !15
  %43 = call ptr @_mi_os_alloc_huge_os_pages(i64 noundef %40, i32 noundef %41, i64 noundef %42, ptr noundef %13, ptr noundef %12, ptr noundef %14) #12
  store ptr %43, ptr %15, align 8, !tbaa !53
  %44 = load ptr, ptr %15, align 8, !tbaa !53
  %45 = icmp eq ptr %44, null
  br i1 %45, label %49, label %46

46:                                               ; preds = %39
  %47 = load i64, ptr %13, align 8, !tbaa !15
  %48 = icmp eq i64 %47, 0
  br i1 %48, label %49, label %51

49:                                               ; preds = %46, %39
  %50 = load i64, ptr %7, align 8, !tbaa !15
  call void (ptr, ...) @_mi_warning_message(ptr noundef @.str.14, i64 noundef %50) #12
  store i32 12, ptr %6, align 4
  store i32 1, ptr %16, align 4
  br label %66

51:                                               ; preds = %46
  %52 = load i32, ptr %8, align 4, !tbaa !52
  %53 = load i64, ptr %13, align 8, !tbaa !15
  %54 = load i64, ptr %7, align 8, !tbaa !15
  call void (ptr, ...) @_mi_verbose_message(ptr noundef @.str.15, i32 noundef %52, i64 noundef %53, i64 noundef %54) #12
  %55 = load ptr, ptr %15, align 8, !tbaa !53
  %56 = load i64, ptr %12, align 8, !tbaa !15
  %57 = load i32, ptr %8, align 4, !tbaa !52
  %58 = load i8, ptr %10, align 1, !tbaa !21, !range !22, !noundef !23
  %59 = trunc i8 %58 to i1
  %60 = load ptr, ptr %11, align 8, !tbaa !69
  %61 = call zeroext i1 @mi_manage_os_memory_ex2(ptr noundef %55, i64 noundef %56, i1 noundef zeroext true, i32 noundef %57, i1 noundef zeroext %59, ptr noundef byval(%struct.mi_memid_s) align 8 %14, ptr noundef %60) #12
  br i1 %61, label %65, label %62

62:                                               ; preds = %51
  %63 = load ptr, ptr %15, align 8, !tbaa !53
  %64 = load i64, ptr %12, align 8, !tbaa !15
  call void @_mi_os_free(ptr noundef %63, i64 noundef %64, ptr noundef byval(%struct.mi_memid_s) align 8 %14) #12
  store i32 12, ptr %6, align 4
  store i32 1, ptr %16, align 4
  br label %66

65:                                               ; preds = %51
  store i32 0, ptr %6, align 4
  store i32 1, ptr %16, align 4
  br label %66

66:                                               ; preds = %65, %62, %49
  call void @llvm.lifetime.end.p0(i64 8, ptr %15) #13
  call void @llvm.lifetime.end.p0(i64 24, ptr %14) #13
  call void @llvm.lifetime.end.p0(i64 8, ptr %13) #13
  call void @llvm.lifetime.end.p0(i64 8, ptr %12) #13
  br label %67

67:                                               ; preds = %66, %25
  %68 = load i32, ptr %6, align 4
  ret i32 %68
}