; Function Attrs: nounwind uwtable
define hidden range(i32 0, 13) i32 @mi_reserve_huge_os_pages_at_ex(i64 noundef %0, i32 noundef %1, i64 noundef %2, i1 noundef zeroext %3, ptr noundef captures(address_is_null) %4) local_unnamed_addr #0 {
  %6 = alloca i64, align 8
  %7 = alloca i64, align 8
  %8 = alloca %struct.mi_memid_s, align 8
  %.not = icmp eq ptr %4, null
  br i1 %.not, label %10, label %9

9:                                                ; preds = %5
  store i32 -1, ptr %4, align 4, !tbaa !47
  br label %10

10:                                               ; preds = %9, %5
  %11 = icmp eq i64 %0, 0
  br i1 %11, label %33, label %12

12:                                               ; preds = %10
  %spec.store.select = tail call i32 @llvm.smax.i32(i32 %1, i32 -1)
  %13 = icmp sgt i32 %1, -1
  br i1 %13, label %14, label %21

14:                                               ; preds = %12
  %15 = zext nneg i32 %spec.store.select to i64
  %16 = load atomic i64, ptr @_mi_numa_node_count monotonic, align 8
  %.not.i = icmp eq i64 %16, 0
  br i1 %.not.i, label %17, label %_mi_os_numa_node_count.exit, !prof !89

17:                                               ; preds = %14
  %18 = tail call i64 @_mi_os_numa_node_count_get() #20
  br label %_mi_os_numa_node_count.exit

_mi_os_numa_node_count.exit:                      ; preds = %14, %17
  %.0.i = phi i64 [ %18, %17 ], [ %16, %14 ]
  %19 = urem i64 %15, %.0.i
  %20 = trunc nuw nsw i64 %19 to i32
  br label %21

21:                                               ; preds = %_mi_os_numa_node_count.exit, %12
  %.019 = phi i32 [ %20, %_mi_os_numa_node_count.exit ], [ %spec.store.select, %12 ]
  call void @llvm.lifetime.start.p0(i64 8, ptr nonnull %6) #21
  store i64 0, ptr %6, align 8, !tbaa !25
  call void @llvm.lifetime.start.p0(i64 8, ptr nonnull %7) #21
  store i64 0, ptr %7, align 8, !tbaa !25
  call void @llvm.lifetime.start.p0(i64 24, ptr nonnull %8) #21
  %22 = call ptr @_mi_os_alloc_huge_os_pages(i64 noundef %0, i32 noundef %.019, i64 noundef %2, ptr noundef nonnull %7, ptr noundef nonnull %6, ptr noundef nonnull %8) #20
  %23 = icmp eq ptr %22, null
  %24 = load i64, ptr %7, align 8
  %25 = icmp eq i64 %24, 0
  %or.cond = select i1 %23, i1 true, i1 %25
  br i1 %or.cond, label %26, label %27

26:                                               ; preds = %21
  call void (ptr, ...) @_mi_warning_message(ptr noundef nonnull @.str.14, i64 noundef %0) #20
  br label %32

27:                                               ; preds = %21
  call void (ptr, ...) @_mi_verbose_message(ptr noundef nonnull @.str.15, i32 noundef %.019, i64 noundef %24, i64 noundef %0) #20
  %28 = load i64, ptr %6, align 8, !tbaa !25
  %29 = call fastcc zeroext i1 @mi_manage_os_memory_ex2(ptr noundef nonnull %22, i64 noundef %28, i1 noundef zeroext true, i32 noundef %.019, i1 noundef zeroext %3, ptr noundef nonnull byval(%struct.mi_memid_s) align 8 %8, ptr noundef %4) #19
  br i1 %29, label %32, label %30

30:                                               ; preds = %27
  %31 = load i64, ptr %6, align 8, !tbaa !25
  call void @_mi_os_free(ptr noundef nonnull %22, i64 noundef %31, ptr noundef nonnull byval(%struct.mi_memid_s) align 8 %8) #20
  br label %32

32:                                               ; preds = %27, %30, %26
  %.1 = phi i32 [ 12, %26 ], [ 12, %30 ], [ 0, %27 ]
  call void @llvm.lifetime.end.p0(i64 24, ptr nonnull %8) #21
  call void @llvm.lifetime.end.p0(i64 8, ptr nonnull %7) #21
  call void @llvm.lifetime.end.p0(i64 8, ptr nonnull %6) #21
  br label %33

33:                                               ; preds = %10, %32
  %.0 = phi i32 [ %.1, %32 ], [ 0, %10 ]
  ret i32 %.0
}